; Function Attrs: inlinehint mustprogress nounwind uwtable
define internal fastcc void @_ZSt8_DestroyIPN12_GLOBAL__N_112FeedbackPathEEvT_S3_(ptr noundef readonly captures(address) %0, ptr noundef readnone captures(address) %1) unnamed_addr #4 personality ptr @__gxx_personality_v0 {
  %.not4.i = icmp eq ptr %0, %1
  br i1 %.not4.i, label %_ZNSt12_Destroy_auxILb0EE9__destroyIPN12_GLOBAL__N_112FeedbackPathEEEvT_S5_.exit, label %.lr.ph.i

.lr.ph.i:                                         ; preds = %2, %_ZSt8_DestroyIN12_GLOBAL__N_112FeedbackPathEEvPT_.exit.i
  %.05.i = phi ptr [ %19, %_ZSt8_DestroyIN12_GLOBAL__N_112FeedbackPathEEvPT_.exit.i ], [ %0, %2 ]
  %3 = getelementptr inbounds nuw i8, ptr %.05.i, i64 8
  %4 = getelementptr inbounds nuw i8, ptr %.05.i, i64 32
  %5 = load ptr, ptr %4, align 8, !tbaa !350
  %.not.i.i.i.i.i.i.i = icmp eq ptr %5, null
  br i1 %.not.i.i.i.i.i.i.i, label %_ZNSt6vectorIN5Yosys7hashlib4dictINS0_5RTLIL6SigBitEbNS1_8hash_opsIS4_EEE7entry_tESaIS8_EED2Ev.exit.i.i.i.i, label %6

6:                                                ; preds = %.lr.ph.i
  %7 = getelementptr inbounds nuw i8, ptr %.05.i, i64 48
  %8 = load ptr, ptr %7, align 8, !tbaa !353
  %9 = ptrtoint ptr %8 to i64
  %10 = ptrtoint ptr %5 to i64
  %11 = sub i64 %9, %10
  tail call void @_ZdlPvm(ptr noundef nonnull %5, i64 noundef %11) #24
  br label %_ZNSt6vectorIN5Yosys7hashlib4dictINS0_5RTLIL6SigBitEbNS1_8hash_opsIS4_EEE7entry_tESaIS8_EED2Ev.exit.i.i.i.i

_ZNSt6vectorIN5Yosys7hashlib4dictINS0_5RTLIL6SigBitEbNS1_8hash_opsIS4_EEE7entry_tESaIS8_EED2Ev.exit.i.i.i.i: ; preds = %6, %.lr.ph.i
  %12 = load ptr, ptr %3, align 8, !tbaa !78
  %.not.i.i.i1.i.i.i.i = icmp eq ptr %12, null
  br i1 %.not.i.i.i1.i.i.i.i, label %_ZSt8_DestroyIN12_GLOBAL__N_112FeedbackPathEEvPT_.exit.i, label %13

13:                                               ; preds = %_ZNSt6vectorIN5Yosys7hashlib4dictINS0_5RTLIL6SigBitEbNS1_8hash_opsIS4_EEE7entry_tESaIS8_EED2Ev.exit.i.i.i.i
  %14 = getelementptr inbounds nuw i8, ptr %.05.i, i64 24
  %15 = load ptr, ptr %14, align 8, !tbaa !93
  %16 = ptrtoint ptr %15 to i64
  %17 = ptrtoint ptr %12 to i64
  %18 = sub i64 %16, %17
  tail call void @_ZdlPvm(ptr noundef nonnull %12, i64 noundef %18) #24
  br label %_ZSt8_DestroyIN12_GLOBAL__N_112FeedbackPathEEvPT_.exit.i

_ZSt8_DestroyIN12_GLOBAL__N_112FeedbackPathEEvPT_.exit.i: ; preds = %13, %_ZNSt6vectorIN5Yosys7hashlib4dictINS0_5RTLIL6SigBitEbNS1_8hash_opsIS4_EEE7entry_tESaIS8_EED2Ev.exit.i.i.i.i
  %19 = getelementptr inbounds nuw i8, ptr %.05.i, i64 80
  %.not.i = icmp eq ptr %19, %1
  br i1 %.not.i, label %_ZNSt12_Destroy_auxILb0EE9__destroyIPN12_GLOBAL__N_112FeedbackPathEEEvT_S5_.exit, label %.lr.ph.i, !llvm.loop !398

_ZNSt12_Destroy_auxILb0EE9__destroyIPN12_GLOBAL__N_112FeedbackPathEEEvT_S5_.exit: ; preds = %_ZSt8_DestroyIN12_GLOBAL__N_112FeedbackPathEEvPT_.exit.i, %2
  ret void
}